target datalayout = "e-m:e-p270:32:32-p271:32:32-p272:64:64-i64:64-i128:128-f80:128-n8:16:32:64-S128"
target triple = "x86_64-pc-linux-gnu"

%"class.folly::detail::CancellationState" = type { ptr, %"struct.std::atomic", ptr, %"class.std::thread::id" }
%"struct.std::atomic" = type { %"struct.std::__atomic_base" }
%"struct.std::__atomic_base" = type { i64 }
%"class.std::thread::id" = type { i64 }
%"class.folly::detail::MergingCancellationState" = type { %"class.folly::detail::CancellationState", ptr, [8 x i8] }

@_ZTVN5folly6detail17CancellationStateE = unnamed_addr constant { [4 x ptr] } { [4 x ptr] [ptr null, ptr @_ZTIN5folly6detail17CancellationStateE, ptr @_ZN5folly6detail17CancellationStateD1Ev, ptr @_ZN5folly6detail17CancellationStateD0Ev] }, align 8
@_ZTVN5folly6detail24MergingCancellationStateE = unnamed_addr constant { [4 x ptr] } { [4 x ptr] [ptr null, ptr @_ZTIN5folly6detail24MergingCancellationStateE, ptr @_ZN5folly6detail24MergingCancellationStateD1Ev, ptr @_ZN5folly6detail24MergingCancellationStateD0Ev] }, align 8

; Function Attrs: mustprogress nounwind uwtable
define linkonce_odr void @_ZNSt13__atomic_baseImEC2Em(ptr noundef nonnull align 8 dereferenceable(8) %0, i64 noundef %1) unnamed_addr #0 comdat align 2 {
  %3 = alloca ptr, align 8
  %4 = alloca i64, align 8
  store ptr %0, ptr %3, align 8, !tbaa !34
  store i64 %1, ptr %4, align 8, !tbaa !33
  %5 = load ptr, ptr %3, align 8
  %6 = getelementptr inbounds nuw %"struct.std::__atomic_base", ptr %5, i32 0, i32 0
  %7 = load i64, ptr %4, align 8, !tbaa !33
  store i64 %7, ptr %6, align 8, !tbaa !115
  ret void
}

; Function Attrs: mustprogress nounwind uwtable
define linkonce_odr void @_ZNSt6thread2idC2Ev(ptr noundef nonnull align 8 dereferenceable(8) %0) unnamed_addr #0 comdat align 2 {
  %2 = alloca ptr, align 8
  store ptr %0, ptr %2, align 8, !tbaa !105
  %3 = load ptr, ptr %2, align 8
  %4 = getelementptr inbounds nuw %"class.std::thread::id", ptr %3, i32 0, i32 0
  store i64 0, ptr %4, align 8, !tbaa !101
  ret void
}

; Function Attrs: mustprogress nounwind uwtable
define linkonce_odr void @_ZNSt6atomicImEC2Em(ptr noundef nonnull align 8 dereferenceable(8) %0, i64 noundef %1) unnamed_addr #0 comdat align 2 {
  %3 = alloca ptr, align 8
  %4 = alloca i64, align 8
  store ptr %0, ptr %3, align 8, !tbaa !113
  store i64 %1, ptr %4, align 8, !tbaa !33
  %5 = load ptr, ptr %3, align 8
  %6 = load i64, ptr %4, align 8, !tbaa !33
  call void @_ZNSt13__atomic_baseImEC2Em(ptr noundef nonnull align 8 dereferenceable(8) %5, i64 noundef %6) #20
  ret void
}

; Function Attrs: inlinehint mustprogress nounwind uwtable
define linkonce_odr void @_ZN5folly6detail17CancellationStateC2ENS0_27MergingCancellationStateTagE(ptr noundef nonnull align 8 dereferenceable(32) %0) unnamed_addr #7 comdat align 2 {
  %2 = alloca ptr, align 8
  store ptr %0, ptr %2, align 8, !tbaa !7
  %3 = load ptr, ptr %2, align 8
  store ptr getelementptr inbounds inrange(-16, 16) ({ [4 x ptr] }, ptr @_ZTVN5folly6detail17CancellationStateE, i32 0, i32 0, i32 2), ptr %3, align 8, !tbaa !14
  %4 = getelementptr inbounds nuw %"class.folly::detail::CancellationState", ptr %3, i32 0, i32 1
  call void @_ZNSt6atomicImEC2Em(ptr noundef nonnull align 8 dereferenceable(8) %4, i64 noundef 12) #20
  %5 = getelementptr inbounds nuw %"class.folly::detail::CancellationState", ptr %3, i32 0, i32 2
  store ptr null, ptr %5, align 8, !tbaa !16
  %6 = getelementptr inbounds nuw %"class.folly::detail::CancellationState", ptr %3, i32 0, i32 3
  call void @_ZNSt6thread2idC2Ev(ptr noundef nonnull align 8 dereferenceable(8) %6) #20
  ret void
}

; Function Attrs: mustprogress nounwind uwtable
define void @_ZN5folly6detail24MergingCancellationStateC2Ev(ptr noundef nonnull align 16 dereferenceable(40) %0) unnamed_addr #0 align 2 {
  %2 = alloca ptr, align 8
  store ptr %0, ptr %2, align 8, !tbaa !12
  %3 = load ptr, ptr %2, align 8
  call void @_ZN5folly6detail17CancellationStateC2ENS0_27MergingCancellationStateTagE(ptr noundef nonnull align 8 dereferenceable(32) %3) #20
  store ptr getelementptr inbounds inrange(-16, 16) ({ [4 x ptr] }, ptr @_ZTVN5folly6detail24MergingCancellationStateE, i32 0, i32 0, i32 2), ptr %3, align 16, !tbaa !14
  %4 = getelementptr inbounds nuw %"class.folly::detail::MergingCancellationState", ptr %3, i32 0, i32 1
  %5 = getelementptr inbounds %"class.folly::detail::MergingCancellationState", ptr %3, i64 1
  store ptr %5, ptr %4, align 16, !tbaa !109
  ret void
}