; Function Attrs: mustprogress nofree norecurse nosync nounwind willreturn memory(argmem: write) uwtable
define void @_ZN5folly6detail24MergingCancellationStateC2Ev(ptr noundef nonnull align 16 dereferenceable(40) initializes((0, 32)) %0) unnamed_addr #1 align 2 {
  %2 = getelementptr inbounds nuw i8, ptr %0, i64 8
  store i64 12, ptr %2, align 8, !tbaa !51
  %3 = getelementptr inbounds nuw i8, ptr %0, i64 16
  tail call void @llvm.memset.p0.i64(ptr noundef nonnull align 16 dereferenceable(16) %3, i8 0, i64 16, i1 false)
  store ptr getelementptr inbounds nuw inrange(-16, 16) (i8, ptr @_ZTVN5folly6detail24MergingCancellationStateE, i64 16), ptr %0, align 16, !tbaa !7
  %4 = getelementptr inbounds nuw i8, ptr %0, i64 32
  %5 = getelementptr inbounds nuw i8, ptr %0, i64 48
  store ptr %5, ptr %4, align 16, !tbaa !42
  ret void
}